target datalayout = "e-m:e-p270:32:32-p271:32:32-p272:64:64-i64:64-i128:128-f80:128-n8:16:32:64-S128"
target triple = "x86_64-pc-linux-gnu"

%struct.Node = type { i32 }
%struct.Expr = type { i32 }
%union.ListCell = type { ptr }
%struct.Const = type { %struct.Expr, i32, i32, i32, i32, i64, i8, i8, i32 }

@.str.1 = private unnamed_addr constant [10 x i8] c"network.c\00", align 1
@.str.23 = private unnamed_addr constant [31 x i8] c"no >= operator for opfamily %u\00", align 1
@__func__.match_network_subset = private unnamed_addr constant [21 x i8] c"match_network_subset\00", align 1
@.str.24 = private unnamed_addr constant [30 x i8] c"no > operator for opfamily %u\00", align 1
@.str.25 = private unnamed_addr constant [31 x i8] c"no <= operator for opfamily %u\00", align 1

; Function Attrs: inlinehint nounwind uwtable
define internal i64 @Int32GetDatum(i32 noundef %0) #2 {
  %2 = alloca i32, align 4
  store i32 %0, ptr %2, align 4
  %3 = load i32, ptr %2, align 4
  %4 = sext i32 %3 to i64
  ret i64 %4
}

; Function Attrs: nounwind uwtable
define dso_local i64 @network_scan_last(i64 noundef %0) #0 {
  %2 = alloca i64, align 8
  store i64 %0, ptr %2, align 8
  %3 = load i64, ptr %2, align 8
  %4 = call i64 @DirectFunctionCall1Coll(ptr noundef @network_broadcast, i32 noundef 0, i64 noundef %3)
  %5 = call i64 @Int32GetDatum(i32 noundef -1)
  %6 = call i64 @DirectFunctionCall2Coll(ptr noundef @inet_set_masklen, i32 noundef 0, i64 noundef %4, i64 noundef %5)
  ret i64 %6
}

; Function Attrs: nounwind uwtable
define dso_local i64 @network_scan_first(i64 noundef %0) #0 {
  %2 = alloca i64, align 8
  store i64 %0, ptr %2, align 8
  %3 = load i64, ptr %2, align 8
  %4 = call i64 @DirectFunctionCall1Coll(ptr noundef @network_network, i32 noundef 0, i64 noundef %3)
  ret i64 %4
}

; Function Attrs: nounwind uwtable
define internal ptr @match_network_subset(ptr noundef %0, ptr noundef %1, i1 noundef zeroext %2, i32 noundef %3) #0 {
  %5 = alloca ptr, align 8
  %6 = alloca ptr, align 8
  %7 = alloca ptr, align 8
  %8 = alloca i8, align 1
  %9 = alloca i32, align 4
  %10 = alloca ptr, align 8
  %11 = alloca i64, align 8
  %12 = alloca i32, align 4
  %13 = alloca i32, align 4
  %14 = alloca i32, align 4
  %15 = alloca i64, align 8
  %16 = alloca i64, align 8
  %17 = alloca ptr, align 8
  %18 = alloca i32, align 4
  %19 = alloca %union.ListCell, align 8
  store ptr %0, ptr %6, align 8
  store ptr %1, ptr %7, align 8
  %20 = zext i1 %2 to i8
  store i8 %20, ptr %8, align 1
  store i32 %3, ptr %9, align 4
  call void @llvm.lifetime.start.p0(i64 8, ptr %10) #8
  call void @llvm.lifetime.start.p0(i64 8, ptr %11) #8
  call void @llvm.lifetime.start.p0(i64 4, ptr %12) #8
  store i32 869, ptr %12, align 4
  call void @llvm.lifetime.start.p0(i64 4, ptr %13) #8
  call void @llvm.lifetime.start.p0(i64 4, ptr %14) #8
  call void @llvm.lifetime.start.p0(i64 8, ptr %15) #8
  call void @llvm.lifetime.start.p0(i64 8, ptr %16) #8
  call void @llvm.lifetime.start.p0(i64 8, ptr %17) #8
  %21 = load ptr, ptr %7, align 8
  %22 = getelementptr inbounds nuw %struct.Node, ptr %21, i32 0, i32 0
  %23 = load i32, ptr %22, align 4
  %24 = icmp eq i32 %23, 7
  br i1 %24, label %25, label %30

25:                                               ; preds = %4
  %26 = load ptr, ptr %7, align 8
  %27 = getelementptr inbounds nuw %struct.Const, ptr %26, i32 0, i32 6
  %28 = load i8, ptr %27, align 8, !range !4, !noundef !5
  %29 = trunc i8 %28 to i1
  br i1 %29, label %30, label %31

30:                                               ; preds = %25, %4
  store ptr null, ptr %5, align 8
  store i32 1, ptr %18, align 4
  br label %125

31:                                               ; preds = %25
  %32 = load ptr, ptr %7, align 8
  %33 = getelementptr inbounds nuw %struct.Const, ptr %32, i32 0, i32 5
  %34 = load i64, ptr %33, align 8
  store i64 %34, ptr %11, align 8
  %35 = load i32, ptr %9, align 4
  %36 = icmp ne i32 %35, 1974
  br i1 %36, label %37, label %38

37:                                               ; preds = %31
  store ptr null, ptr %5, align 8
  store i32 1, ptr %18, align 4
  br label %125

38:                                               ; preds = %31
  %39 = load i8, ptr %8, align 1, !range !4, !noundef !5
  %40 = trunc i8 %39 to i1
  br i1 %40, label %41, label %61

41:                                               ; preds = %38
  %42 = load i32, ptr %9, align 4
  %43 = load i32, ptr %12, align 4
  %44 = load i32, ptr %12, align 4
  %45 = call i32 @get_opfamily_member(i32 noundef %42, i32 noundef %43, i32 noundef %44, i16 noundef signext 4)
  store i32 %45, ptr %13, align 4
  %46 = load i32, ptr %13, align 4
  %47 = icmp eq i32 %46, 0
  br i1 %47, label %48, label %60

48:                                               ; preds = %41
  br label %49

49:                                               ; preds = %48
  br i1 true, label %50, label %52

50:                                               ; preds = %49
  %51 = call zeroext i1 @errstart_cold(i32 noundef 21, ptr noundef null) #10
  br i1 %51, label %54, label %57

52:                                               ; preds = %49
  %53 = call zeroext i1 @errstart(i32 noundef 21, ptr noundef null)
  br i1 %53, label %54, label %57

54:                                               ; preds = %52, %50
  %55 = load i32, ptr %9, align 4
  %56 = call i32 (ptr, ...) @errmsg_internal(ptr noundef @.str.23, i32 noundef %55)
  call void @errfinish(ptr noundef @.str.1, i32 noundef 1120, ptr noundef @__func__.match_network_subset)
  br label %57

57:                                               ; preds = %54, %52, %50
  unreachable

58:                                               ; No predecessors!
  br label %59

59:                                               ; preds = %58
  br label %60

60:                                               ; preds = %59, %41
  br label %81

61:                                               ; preds = %38
  %62 = load i32, ptr %9, align 4
  %63 = load i32, ptr %12, align 4
  %64 = load i32, ptr %12, align 4
  %65 = call i32 @get_opfamily_member(i32 noundef %62, i32 noundef %63, i32 noundef %64, i16 noundef signext 5)
  store i32 %65, ptr %13, align 4
  %66 = load i32, ptr %13, align 4
  %67 = icmp eq i32 %66, 0
  br i1 %67, label %68, label %80

68:                                               ; preds = %61
  br label %69

69:                                               ; preds = %68
  br i1 true, label %70, label %72

70:                                               ; preds = %69
  %71 = call zeroext i1 @errstart_cold(i32 noundef 21, ptr noundef null) #10
  br i1 %71, label %74, label %77

72:                                               ; preds = %69
  %73 = call zeroext i1 @errstart(i32 noundef 21, ptr noundef null)
  br i1 %73, label %74, label %77

74:                                               ; preds = %72, %70
  %75 = load i32, ptr %9, align 4
  %76 = call i32 (ptr, ...) @errmsg_internal(ptr noundef @.str.24, i32 noundef %75)
  call void @errfinish(ptr noundef @.str.1, i32 noundef 1127, ptr noundef @__func__.match_network_subset)
  br label %77

77:                                               ; preds = %74, %72, %70
  unreachable

78:                                               ; No predecessors!
  br label %79

79:                                               ; preds = %78
  br label %80

80:                                               ; preds = %79, %61
  br label %81

81:                                               ; preds = %80, %60
  %82 = load i64, ptr %11, align 8
  %83 = call i64 @network_scan_first(i64 noundef %82)
  store i64 %83, ptr %15, align 8
  %84 = load i32, ptr %13, align 4
  %85 = load ptr, ptr %6, align 8
  %86 = load i32, ptr %12, align 4
  %87 = load i64, ptr %15, align 8
  %88 = call ptr @makeConst(i32 noundef %86, i32 noundef -1, i32 noundef 0, i32 noundef -1, i64 noundef %87, i1 noundef zeroext false, i1 noundef zeroext false)
  %89 = call ptr @make_opclause(i32 noundef %84, i32 noundef 16, i1 noundef zeroext false, ptr noundef %85, ptr noundef %88, i32 noundef 0, i32 noundef 0)
  store ptr %89, ptr %17, align 8
  %90 = load ptr, ptr %17, align 8
  store ptr %90, ptr %19, align 8
  %91 = getelementptr inbounds nuw %union.ListCell, ptr %19, i32 0, i32 0
  %92 = load ptr, ptr %91, align 8
  %93 = call ptr @list_make1_impl(i32 noundef 1, ptr %92)
  store ptr %93, ptr %10, align 8
  %94 = load i32, ptr %9, align 4
  %95 = load i32, ptr %12, align 4
  %96 = load i32, ptr %12, align 4
  %97 = call i32 @get_opfamily_member(i32 noundef %94, i32 noundef %95, i32 noundef %96, i16 noundef signext 2)
  store i32 %97, ptr %14, align 4
  %98 = load i32, ptr %14, align 4
  %99 = icmp eq i32 %98, 0
  br i1 %99, label %100, label %112

100:                                              ; preds = %81
  br label %101

101:                                              ; preds = %100
  br i1 true, label %102, label %104

102:                                              ; preds = %101
  %103 = call zeroext i1 @errstart_cold(i32 noundef 21, ptr noundef null) #10
  br i1 %103, label %106, label %109

104:                                              ; preds = %101
  %105 = call zeroext i1 @errstart(i32 noundef 21, ptr noundef null)
  br i1 %105, label %106, label %109

106:                                              ; preds = %104, %102
  %107 = load i32, ptr %9, align 4
  %108 = call i32 (ptr, ...) @errmsg_internal(ptr noundef @.str.25, i32 noundef %107)
  call void @errfinish(ptr noundef @.str.1, i32 noundef 1146, ptr noundef @__func__.match_network_subset)
  br label %109

109:                                              ; preds = %106, %104, %102
  unreachable

110:                                              ; No predecessors!
  br label %111

111:                                              ; preds = %110
  br label %112

112:                                              ; preds = %111, %81
  %113 = load i64, ptr %11, align 8
  %114 = call i64 @network_scan_last(i64 noundef %113)
  store i64 %114, ptr %16, align 8
  %115 = load i32, ptr %14, align 4
  %116 = load ptr, ptr %6, align 8
  %117 = load i32, ptr %12, align 4
  %118 = load i64, ptr %16, align 8
  %119 = call ptr @makeConst(i32 noundef %117, i32 noundef -1, i32 noundef 0, i32 noundef -1, i64 noundef %118, i1 noundef zeroext false, i1 noundef zeroext false)
  %120 = call ptr @make_opclause(i32 noundef %115, i32 noundef 16, i1 noundef zeroext false, ptr noundef %116, ptr noundef %119, i32 noundef 0, i32 noundef 0)
  store ptr %120, ptr %17, align 8
  %121 = load ptr, ptr %10, align 8
  %122 = load ptr, ptr %17, align 8
  %123 = call ptr @lappend(ptr noundef %121, ptr noundef %122)
  store ptr %123, ptr %10, align 8
  %124 = load ptr, ptr %10, align 8
  store ptr %124, ptr %5, align 8
  store i32 1, ptr %18, align 4
  br label %125

125:                                              ; preds = %112, %37, %30
  call void @llvm.lifetime.end.p0(i64 8, ptr %17) #8
  call void @llvm.lifetime.end.p0(i64 8, ptr %16) #8
  call void @llvm.lifetime.end.p0(i64 8, ptr %15) #8
  call void @llvm.lifetime.end.p0(i64 4, ptr %14) #8
  call void @llvm.lifetime.end.p0(i64 4, ptr %13) #8
  call void @llvm.lifetime.end.p0(i64 4, ptr %12) #8
  call void @llvm.lifetime.end.p0(i64 8, ptr %11) #8
  call void @llvm.lifetime.end.p0(i64 8, ptr %10) #8
  %126 = load ptr, ptr %5, align 8
  ret ptr %126
}