; Function Attrs: nounwind uwtable
define internal fastcc ptr @match_network_subset(ptr noundef %0, ptr noundef readonly captures(none) %1, i1 noundef zeroext %2, i32 noundef %3) unnamed_addr #0 {
  %5 = load i32, ptr %1, align 4
  %6 = icmp eq i32 %5, 7
  br i1 %6, label %7, label %43

7:                                                ; preds = %4
  %8 = getelementptr inbounds nuw i8, ptr %1, i64 32
  %9 = load i8, ptr %8, align 8, !range !24, !noundef !25
  %10 = trunc nuw i8 %9 to i1
  br i1 %10, label %43, label %11

11:                                               ; preds = %7
  %12 = getelementptr inbounds nuw i8, ptr %1, i64 24
  %13 = load i64, ptr %12, align 8
  %.not = icmp eq i32 %3, 1974
  br i1 %.not, label %14, label %43

14:                                               ; preds = %11
  br i1 %2, label %15, label %21

15:                                               ; preds = %14
  %16 = tail call i32 @get_opfamily_member(i32 noundef 1974, i32 noundef 869, i32 noundef 869, i16 noundef signext 4) #14
  %17 = icmp eq i32 %16, 0
  br i1 %17, label %18, label %27

18:                                               ; preds = %15
  %19 = tail call zeroext i1 @errstart_cold(i32 noundef 21, ptr noundef null) #16
  tail call void @llvm.assume(i1 %19)
  %20 = tail call i32 (ptr, ...) @errmsg_internal(ptr noundef nonnull @.str.23, i32 noundef 1974) #14
  tail call void @errfinish(ptr noundef nonnull @.str.1, i32 noundef 1120, ptr noundef nonnull @__func__.match_network_subset) #14
  unreachable

21:                                               ; preds = %14
  %22 = tail call i32 @get_opfamily_member(i32 noundef 1974, i32 noundef 869, i32 noundef 869, i16 noundef signext 5) #14
  %23 = icmp eq i32 %22, 0
  br i1 %23, label %24, label %27

24:                                               ; preds = %21
  %25 = tail call zeroext i1 @errstart_cold(i32 noundef 21, ptr noundef null) #16
  tail call void @llvm.assume(i1 %25)
  %26 = tail call i32 (ptr, ...) @errmsg_internal(ptr noundef nonnull @.str.24, i32 noundef 1974) #14
  tail call void @errfinish(ptr noundef nonnull @.str.1, i32 noundef 1127, ptr noundef nonnull @__func__.match_network_subset) #14
  unreachable

27:                                               ; preds = %21, %15
  %.034 = phi i32 [ %16, %15 ], [ %22, %21 ]
  %28 = tail call i64 @DirectFunctionCall1Coll(ptr noundef nonnull @network_network, i32 noundef 0, i64 noundef %13) #14
  %29 = tail call ptr @makeConst(i32 noundef 869, i32 noundef -1, i32 noundef 0, i32 noundef -1, i64 noundef %28, i1 noundef zeroext false, i1 noundef zeroext false) #14
  %30 = tail call ptr @make_opclause(i32 noundef %.034, i32 noundef 16, i1 noundef zeroext false, ptr noundef %0, ptr noundef %29, i32 noundef 0, i32 noundef 0) #14
  %31 = tail call ptr @list_make1_impl(i32 noundef 1, ptr %30) #14
  %32 = tail call i32 @get_opfamily_member(i32 noundef 1974, i32 noundef 869, i32 noundef 869, i16 noundef signext 2) #14
  %33 = icmp eq i32 %32, 0
  br i1 %33, label %34, label %37

34:                                               ; preds = %27
  %35 = tail call zeroext i1 @errstart_cold(i32 noundef 21, ptr noundef null) #16
  tail call void @llvm.assume(i1 %35)
  %36 = tail call i32 (ptr, ...) @errmsg_internal(ptr noundef nonnull @.str.25, i32 noundef 1974) #14
  tail call void @errfinish(ptr noundef nonnull @.str.1, i32 noundef 1146, ptr noundef nonnull @__func__.match_network_subset) #14
  unreachable

37:                                               ; preds = %27
  %38 = tail call i64 @DirectFunctionCall1Coll(ptr noundef nonnull @network_broadcast, i32 noundef 0, i64 noundef %13) #14
  %39 = tail call i64 @DirectFunctionCall2Coll(ptr noundef nonnull @inet_set_masklen, i32 noundef 0, i64 noundef %38, i64 noundef -1) #14
  %40 = tail call ptr @makeConst(i32 noundef 869, i32 noundef -1, i32 noundef 0, i32 noundef -1, i64 noundef %39, i1 noundef zeroext false, i1 noundef zeroext false) #14
  %41 = tail call ptr @make_opclause(i32 noundef %32, i32 noundef 16, i1 noundef zeroext false, ptr noundef %0, ptr noundef %40, i32 noundef 0, i32 noundef 0) #14
  %42 = tail call ptr @lappend(ptr noundef %31, ptr noundef %41) #14
  br label %43

43:                                               ; preds = %11, %4, %7, %37
  %.0 = phi ptr [ %42, %37 ], [ null, %7 ], [ null, %4 ], [ null, %11 ]
  ret ptr %.0
}